; Function Attrs: mustprogress uwtable
define noundef zeroext i1 @_ZN3net10QuicFramer23ProcessStopWaitingFrameEPNS_14QuicDataReaderERKNS_16QuicPacketHeaderEPNS_20QuicStopWaitingFrameE(ptr noundef nonnull align 8 dereferenceable(408) %0, ptr noundef %1, ptr noundef nonnull readonly align 8 captures(none) dereferenceable(60) %2, ptr noundef %3) local_unnamed_addr #0 align 2 personality ptr @__gxx_personality_v0 {
  %5 = alloca i64, align 8
  %6 = getelementptr inbounds nuw i8, ptr %0, i64 268
  %7 = load i32, ptr %6, align 4, !tbaa !67
  %8 = icmp slt i32 %7, 34
  br i1 %8, label %9, label %17

9:                                                ; preds = %4
  %10 = getelementptr inbounds nuw i8, ptr %3, i64 1
  %11 = tail call noundef zeroext i1 @_ZN3net14QuicDataReader9ReadBytesEPvm(ptr noundef nonnull align 8 dereferenceable(24) %1, ptr noundef nonnull %10, i64 noundef 1)
  br i1 %11, label %17, label %12

12:                                               ; preds = %9
  %13 = getelementptr inbounds nuw i8, ptr %0, i64 8
  %14 = getelementptr inbounds nuw i8, ptr %0, i64 16
  %15 = load i64, ptr %14, align 8, !tbaa !11
  %16 = tail call noundef nonnull align 8 dereferenceable(32) ptr @_ZNSt7__cxx1112basic_stringIcSt11char_traitsIcESaIcEE10_M_replaceEmmPKcm(ptr noundef nonnull align 8 dereferenceable(32) %13, i64 noundef 0, i64 noundef %15, ptr noundef nonnull @.str.69, i64 noundef 45)
  br label %34

17:                                               ; preds = %9, %4
  call void @llvm.lifetime.start.p0(i64 8, ptr nonnull %5) #26
  store i64 0, ptr %5, align 8, !tbaa !65
  %18 = getelementptr inbounds nuw i8, ptr %2, i64 15
  %19 = load i8, ptr %18, align 1, !tbaa !171
  %20 = sext i8 %19 to i64
  %21 = call noundef zeroext i1 @_ZN3net14QuicDataReader9ReadBytesEPvm(ptr noundef nonnull align 8 dereferenceable(24) %1, ptr noundef nonnull %5, i64 noundef %20)
  br i1 %21, label %27, label %22

22:                                               ; preds = %17
  %23 = getelementptr inbounds nuw i8, ptr %0, i64 8
  %24 = getelementptr inbounds nuw i8, ptr %0, i64 16
  %25 = load i64, ptr %24, align 8, !tbaa !11
  %26 = call noundef nonnull align 8 dereferenceable(32) ptr @_ZNSt7__cxx1112basic_stringIcSt11char_traitsIcESaIcEE10_M_replaceEmmPKcm(ptr noundef nonnull align 8 dereferenceable(32) %23, i64 noundef 0, i64 noundef %25, ptr noundef nonnull @.str.70, i64 noundef 35)
  br label %33

27:                                               ; preds = %17
  %28 = getelementptr inbounds nuw i8, ptr %2, i64 48
  %29 = load i64, ptr %28, align 8, !tbaa !143
  %30 = load i64, ptr %5, align 8, !tbaa !65
  %31 = sub i64 %29, %30
  %32 = getelementptr inbounds nuw i8, ptr %3, i64 8
  store i64 %31, ptr %32, align 8, !tbaa !219
  br label %33

33:                                               ; preds = %27, %22
  call void @llvm.lifetime.end.p0(i64 8, ptr nonnull %5) #26
  br label %34

34:                                               ; preds = %33, %12
  %.0 = phi i1 [ %21, %33 ], [ false, %12 ]
  ret i1 %.0
}